(dp0
S'html'
p1
(dp2
S'abbreviations'
p3
(dp4
S'demo'
p5
S'<div id   ="demo"></div>'
p6
sS'jq'
p7
S'<script type="text/javascript" src="http://ajax.googleapis.com/ajax/libs/jquery/1.3.2/jquery.min.js"></script>'
p8
sS'html:5'
p9
(izencoding.resources
Entry
p10
(dp11
S'type'
p12
S'zen-reference'
p13
sS'value'
p14
S'html:5'
p15
sS'key'
p16
S'html:5'
p17
sbssS'snippets'
p18
(dp19
S'None'
p20
S'html:5'
p21
sss.